target datalayout = "e-m:e-p270:32:32-p271:32:32-p272:64:64-i64:64-i128:128-f80:128-n8:16:32:64-S128"
target triple = "x86_64-unknown-linux-gnu"

%"class.nlsat::solver" = type { ptr, ptr }

; Function Attrs: mustprogress uwtable
define hidden void @_ZN5nlsat6solverC2ERNS0_3ctxE(ptr noundef nonnull align 8 dereferenceable(16) %this, ptr noundef nonnull align 8 dereferenceable(1297) %ctx) unnamed_addr #5 align 2 {
entry:
  %this.addr = alloca ptr, align 8
  %ctx.addr = alloca ptr, align 8
  store ptr %this, ptr %this.addr, align 8
  store ptr %ctx, ptr %ctx.addr, align 8
  %this1 = load ptr, ptr %this.addr, align 8
  %m_ctx = getelementptr inbounds %"class.nlsat::solver", ptr %this1, i32 0, i32 1
  store ptr null, ptr %m_ctx, align 8
  %call = call noalias noundef ptr @_ZN6memory8allocateEm(i64 noundef 728)
  %0 = load ptr, ptr %ctx.addr, align 8
  call void @_ZN5nlsat6solver3impC2ERS0_RNS0_3ctxE(ptr noundef nonnull align 8 dereferenceable(728) %call, ptr noundef nonnull align 8 dereferenceable(16) %this1, ptr noundef nonnull align 8 dereferenceable(1297) %0)
  %m_imp = getelementptr inbounds %"class.nlsat::solver", ptr %this1, i32 0, i32 0
  store ptr %call, ptr %m_imp, align 8
  ret void
}