; Function Attrs: mustprogress uwtable
define hidden void @_ZN5nlsat6solverC2ERNS0_3ctxE(ptr noundef nonnull align 8 dereferenceable(16) %this, ptr noundef nonnull align 8 dereferenceable(1297) %ctx) unnamed_addr #4 align 2 {
entry:
  %m_ctx = getelementptr inbounds i8, ptr %this, i64 8
  store ptr null, ptr %m_ctx, align 8
  %call = tail call noalias noundef ptr @_ZN6memory8allocateEm(i64 noundef 728)
  tail call void @_ZN5nlsat6solver3impC2ERS0_RNS0_3ctxE(ptr noundef nonnull align 8 dereferenceable(728) %call, ptr noundef nonnull align 8 dereferenceable(16) %this, ptr noundef nonnull align 8 dereferenceable(1297) %ctx)
  store ptr %call, ptr %this, align 8
  ret void
}